; Function Attrs: nounwind uwtable
define ptr @l_Array_foldlMUnsafe_fold___at_Lean_Meta_DiscrTree_Trie_foldValues___spec__5___rarg(ptr noundef %0, ptr noundef readonly captures(none) %1, i64 noundef %2, i64 noundef %3, ptr noundef %4) local_unnamed_addr #2 {
  %.not48 = icmp eq i64 %2, %3
  br i1 %.not48, label %.._crit_edge_crit_edge, label %.lr.ph

.._crit_edge_crit_edge:                           ; preds = %5
  %.pre = ptrtoint ptr %0 to i64
  %.pre51 = and i64 %.pre, 1
  br label %._crit_edge

.lr.ph:                                           ; preds = %5
  %6 = getelementptr inbounds nuw i8, ptr %1, i64 24
  %7 = ptrtoint ptr %0 to i64
  %8 = and i64 %7, 1
  %.not47 = icmp eq i64 %8, 0
  br label %9

9:                                                ; preds = %.lr.ph, %lean_dec.exit25
  %.02150 = phi i64 [ %2, %.lr.ph ], [ %20, %lean_dec.exit25 ]
  %.02349 = phi ptr [ %4, %.lr.ph ], [ %44, %lean_dec.exit25 ]
  %10 = getelementptr inbounds nuw [0 x ptr], ptr %6, i64 0, i64 %.02150
  %11 = load ptr, ptr %10, align 8, !tbaa !9
  %12 = ptrtoint ptr %11 to i64
  %13 = and i64 %12, 1
  %.not.i32 = icmp eq i64 %13, 0
  br i1 %.not.i32, label %14, label %lean_array_uget.exit

14:                                               ; preds = %9
  %.val.i.i = load i32, ptr %11, align 4, !tbaa !4
  %15 = icmp sgt i32 %.val.i.i, 0
  br i1 %15, label %16, label %18, !prof !11

16:                                               ; preds = %14
  %17 = add nuw i32 %.val.i.i, 1
  store i32 %17, ptr %11, align 4, !tbaa !4
  br label %lean_array_uget.exit

18:                                               ; preds = %14
  %.not.i.i = icmp eq i32 %.val.i.i, 0
  br i1 %.not.i.i, label %lean_array_uget.exit, label %19

19:                                               ; preds = %18
  tail call void @lean_inc_ref_cold(ptr noundef nonnull %11) #7
  br label %lean_array_uget.exit

lean_array_uget.exit:                             ; preds = %9, %16, %18, %19
  %20 = add i64 %.02150, 1
  %21 = getelementptr inbounds nuw i8, ptr %11, i64 16
  %22 = load ptr, ptr %21, align 8, !tbaa !9
  %23 = ptrtoint ptr %22 to i64
  %24 = and i64 %23, 1
  %.not45 = icmp eq i64 %24, 0
  br i1 %.not45, label %25, label %lean_inc.exit27

25:                                               ; preds = %lean_array_uget.exit
  %.val.i = load i32, ptr %22, align 4, !tbaa !4
  %26 = icmp sgt i32 %.val.i, 0
  br i1 %26, label %27, label %29, !prof !11

27:                                               ; preds = %25
  %28 = add nuw i32 %.val.i, 1
  store i32 %28, ptr %22, align 4, !tbaa !4
  br label %lean_inc.exit27

29:                                               ; preds = %25
  %.not.i33 = icmp eq i32 %.val.i, 0
  br i1 %.not.i33, label %lean_inc.exit27, label %30

30:                                               ; preds = %29
  tail call void @lean_inc_ref_cold(ptr noundef nonnull %22) #7
  br label %lean_inc.exit27

lean_inc.exit27:                                  ; preds = %30, %29, %27, %lean_array_uget.exit
  br i1 %.not.i32, label %31, label %lean_dec.exit26

31:                                               ; preds = %lean_inc.exit27
  %32 = load i32, ptr %11, align 4, !tbaa !4
  %33 = icmp sgt i32 %32, 1
  br i1 %33, label %34, label %36, !prof !11

34:                                               ; preds = %31
  %35 = add nsw i32 %32, -1
  store i32 %35, ptr %11, align 4, !tbaa !4
  br label %lean_dec.exit26

36:                                               ; preds = %31
  %.not.i = icmp eq i32 %32, 0
  br i1 %.not.i, label %lean_dec.exit26, label %37

37:                                               ; preds = %36
  tail call void @lean_dec_ref_cold(ptr noundef nonnull %11) #7
  br label %lean_dec.exit26

lean_dec.exit26:                                  ; preds = %37, %36, %34, %lean_inc.exit27
  br i1 %.not47, label %38, label %lean_inc.exit

38:                                               ; preds = %lean_dec.exit26
  %.val.i34 = load i32, ptr %0, align 4, !tbaa !4
  %39 = icmp sgt i32 %.val.i34, 0
  br i1 %39, label %40, label %42, !prof !11

40:                                               ; preds = %38
  %41 = add nuw i32 %.val.i34, 1
  store i32 %41, ptr %0, align 4, !tbaa !4
  br label %lean_inc.exit

42:                                               ; preds = %38
  %.not.i35 = icmp eq i32 %.val.i34, 0
  br i1 %.not.i35, label %lean_inc.exit, label %43

43:                                               ; preds = %42
  tail call void @lean_inc_ref_cold(ptr noundef nonnull %0) #7
  br label %lean_inc.exit

lean_inc.exit:                                    ; preds = %43, %42, %40, %lean_dec.exit26
  %44 = tail call ptr @l_Lean_Meta_DiscrTree_Trie_foldValuesM___at_Lean_Meta_DiscrTree_Trie_foldValues___spec__1___rarg(ptr noundef %0, ptr noundef %.02349, ptr noundef %22)
  br i1 %.not45, label %45, label %lean_dec.exit25

45:                                               ; preds = %lean_inc.exit
  %46 = load i32, ptr %22, align 4, !tbaa !4
  %47 = icmp sgt i32 %46, 1
  br i1 %47, label %48, label %50, !prof !11

48:                                               ; preds = %45
  %49 = add nsw i32 %46, -1
  store i32 %49, ptr %22, align 4, !tbaa !4
  br label %lean_dec.exit25

50:                                               ; preds = %45
  %.not.i28 = icmp eq i32 %46, 0
  br i1 %.not.i28, label %lean_dec.exit25, label %51

51:                                               ; preds = %50
  tail call void @lean_dec_ref_cold(ptr noundef nonnull %22) #7
  br label %lean_dec.exit25

._crit_edge:                                      ; preds = %lean_dec.exit25, %.._crit_edge_crit_edge
  %.pre-phi52 = phi i64 [ %.pre51, %.._crit_edge_crit_edge ], [ %8, %lean_dec.exit25 ]
  %.023.lcssa = phi ptr [ %4, %.._crit_edge_crit_edge ], [ %44, %lean_dec.exit25 ]
  %.not44 = icmp eq i64 %.pre-phi52, 0
  br i1 %.not44, label %52, label %59

52:                                               ; preds = %._crit_edge
  %53 = load i32, ptr %0, align 4, !tbaa !4
  %54 = icmp sgt i32 %53, 1
  br i1 %54, label %55, label %57, !prof !11

55:                                               ; preds = %52
  %56 = add nsw i32 %53, -1
  store i32 %56, ptr %0, align 4, !tbaa !4
  br label %59

57:                                               ; preds = %52
  %.not.i30 = icmp eq i32 %53, 0
  br i1 %.not.i30, label %59, label %58

58:                                               ; preds = %57
  tail call void @lean_dec_ref_cold(ptr noundef nonnull %0) #7
  br label %59

lean_dec.exit25:                                  ; preds = %lean_inc.exit, %48, %50, %51
  %.not = icmp eq i64 %20, %3
  br i1 %.not, label %._crit_edge, label %9

59:                                               ; preds = %58, %57, %55, %._crit_edge
  ret ptr %.023.lcssa
}